target datalayout = "e-m:e-p270:32:32-p271:32:32-p272:64:64-i64:64-i128:128-f80:128-n8:16:32:64-S128"
target triple = "x86_64-pc-linux-gnu"

%class.Node = type <{ ptr, ptr, ptr, i32, i32, i32, i32, i32, i32, i32, [4 x i8] }>
%class.PhaseTransform = type { ptr, %class.Phase }
%class.Phase = type { i32, ptr }
%class.PhaseValues = type { %class.PhaseTransform, i8, ptr, ptr, [137 x ptr], [137 x ptr], [20 x ptr] }
%class.Type_Array = type { ptr, i32, ptr }

@_ZN4Type3TOPE = external global ptr, align 8
@_ZN9TypeTuple6IFBOTHE = external global ptr, align 8

; Function Attrs: mustprogress nounwind uwtable
define linkonce_odr hidden noundef zeroext i1 @_ZNK4Node22is_OuterStripMinedLoopEv(ptr noundef nonnull align 8 dereferenceable(52) %0) #1 comdat align 2 {
  %2 = alloca ptr, align 8
  store ptr %0, ptr %2, align 8
  %3 = load ptr, ptr %2, align 8
  %4 = getelementptr inbounds %class.Node, ptr %3, i32 0, i32 8
  %5 = load i32, ptr %4, align 4
  %6 = and i32 %5, 1023
  %7 = icmp eq i32 %6, 608
  ret i1 %7
}

; Function Attrs: mustprogress nounwind uwtable
define linkonce_odr hidden noundef ptr @_ZN11PhaseValues10is_IterGVNEv(ptr noundef nonnull align 8 dereferenceable(2400) %0) #1 comdat align 2 {
  %2 = alloca ptr, align 8
  store ptr %0, ptr %2, align 8
  %3 = load ptr, ptr %2, align 8
  %4 = getelementptr inbounds %class.PhaseValues, ptr %3, i32 0, i32 1
  %5 = load i8, ptr %4, align 8
  %6 = trunc i8 %5 to i1
  br i1 %6, label %7, label %8

7:                                                ; preds = %1
  br label %9

8:                                                ; preds = %1
  br label %9

9:                                                ; preds = %8, %7
  %10 = phi ptr [ %3, %7 ], [ null, %8 ]
  ret ptr %10
}

; Function Attrs: mustprogress nounwind uwtable
define linkonce_odr hidden noundef ptr @_ZNK10Type_Array11fast_lookupEj(ptr noundef nonnull align 8 dereferenceable(24) %0, i32 noundef %1) #1 comdat align 2 {
  %3 = alloca ptr, align 8
  %4 = alloca i32, align 4
  store ptr %0, ptr %3, align 8
  store i32 %1, ptr %4, align 4
  %5 = load ptr, ptr %3, align 8
  %6 = getelementptr inbounds %class.Type_Array, ptr %5, i32 0, i32 2
  %7 = load ptr, ptr %6, align 8
  %8 = load i32, ptr %4, align 4
  %9 = zext i32 %8 to i64
  %10 = getelementptr inbounds ptr, ptr %7, i64 %9
  %11 = load ptr, ptr %10, align 8
  ret ptr %11
}

; Function Attrs: mustprogress nounwind uwtable
define hidden noundef zeroext i1 @_ZNK26OuterStripMinedLoopEndNode11is_expandedEP8PhaseGVN(ptr noundef nonnull align 8 dereferenceable(60) %0, ptr noundef %1) #1 align 2 {
  %3 = alloca i1, align 1
  %4 = alloca ptr, align 8
  %5 = alloca ptr, align 8
  %6 = alloca ptr, align 8
  %7 = alloca ptr, align 8
  store ptr %0, ptr %4, align 8
  store ptr %1, ptr %5, align 8
  %8 = load ptr, ptr %4, align 8
  %9 = load ptr, ptr %5, align 8
  %10 = call noundef ptr @_ZN11PhaseValues10is_IterGVNEv(ptr noundef nonnull align 8 dereferenceable(2400) %9)
  %11 = icmp ne ptr %10, null
  br i1 %11, label %12, label %32

12:                                               ; preds = %2
  %13 = call noundef ptr @_ZNK9MultiNode16proj_out_or_nullEj(ptr noundef nonnull align 8 dereferenceable(52) %8, i32 noundef 1)
  store ptr %13, ptr %6, align 8
  %14 = load ptr, ptr %6, align 8
  %15 = icmp ne ptr %14, null
  br i1 %15, label %16, label %31

16:                                               ; preds = %12
  %17 = load ptr, ptr %6, align 8
  %18 = call noundef ptr @_ZNK4Node23unique_ctrl_out_or_nullEv(ptr noundef nonnull align 8 dereferenceable(52) %17)
  store ptr %18, ptr %7, align 8
  %19 = load ptr, ptr %7, align 8
  %20 = icmp ne ptr %19, null
  br i1 %20, label %21, label %30

21:                                               ; preds = %16
  %22 = load ptr, ptr %7, align 8
  %23 = call noundef zeroext i1 @_ZNK4Node22is_OuterStripMinedLoopEv(ptr noundef nonnull align 8 dereferenceable(52) %22)
  br i1 %23, label %24, label %30

24:                                               ; preds = %21
  %25 = load ptr, ptr %7, align 8
  %26 = call noundef ptr @_ZN4Node13find_out_withEi(ptr noundef nonnull align 8 dereferenceable(52) %25, i32 noundef 275)
  %27 = icmp ne ptr %26, null
  br i1 %27, label %28, label %29

28:                                               ; preds = %24
  store i1 true, ptr %3, align 1
  br label %33

29:                                               ; preds = %24
  br label %30

30:                                               ; preds = %29, %21, %16
  br label %31

31:                                               ; preds = %30, %12
  br label %32

32:                                               ; preds = %31, %2
  store i1 false, ptr %3, align 1
  br label %33

33:                                               ; preds = %32, %28
  %34 = load i1, ptr %3, align 1
  ret i1 %34
}

; Function Attrs: mustprogress nounwind uwtable
define linkonce_odr hidden noundef ptr @_ZNK11PhaseValues4typeEPK4Node(ptr noundef nonnull align 8 dereferenceable(2400) %0, ptr noundef %1) #1 comdat align 2 {
  %3 = alloca ptr, align 8
  %4 = alloca ptr, align 8
  %5 = alloca ptr, align 8
  store ptr %0, ptr %3, align 8
  store ptr %1, ptr %4, align 8
  %6 = load ptr, ptr %3, align 8
  %7 = getelementptr inbounds %class.PhaseValues, ptr %6, i32 0, i32 3
  %8 = load ptr, ptr %7, align 8
  %9 = load ptr, ptr %4, align 8
  %10 = getelementptr inbounds %class.Node, ptr %9, i32 0, i32 7
  %11 = load i32, ptr %10, align 8
  %12 = call noundef ptr @_ZNK10Type_Array11fast_lookupEj(ptr noundef nonnull align 8 dereferenceable(24) %8, i32 noundef %11)
  store ptr %12, ptr %5, align 8
  %13 = load ptr, ptr %5, align 8
  ret ptr %13
}

; Function Attrs: mustprogress nounwind uwtable
define linkonce_odr hidden noundef ptr @_ZNK4Node2inEj(ptr noundef nonnull align 8 dereferenceable(52) %0, i32 noundef %1) #1 comdat align 2 {
  %3 = alloca ptr, align 8
  %4 = alloca i32, align 4
  store ptr %0, ptr %3, align 8
  store i32 %1, ptr %4, align 4
  %5 = load ptr, ptr %3, align 8
  %6 = getelementptr inbounds %class.Node, ptr %5, i32 0, i32 1
  %7 = load ptr, ptr %6, align 8
  %8 = load i32, ptr %4, align 4
  %9 = zext i32 %8 to i64
  %10 = getelementptr inbounds ptr, ptr %7, i64 %9
  %11 = load ptr, ptr %10, align 8
  ret ptr %11
}

; Function Attrs: mustprogress nounwind uwtable
define hidden noundef ptr @_ZNK26OuterStripMinedLoopEndNode5ValueEP8PhaseGVN(ptr noundef nonnull align 8 dereferenceable(60) %0, ptr noundef %1) unnamed_addr #1 align 2 {
  %3 = alloca ptr, align 8
  %4 = alloca ptr, align 8
  %5 = alloca ptr, align 8
  store ptr %0, ptr %4, align 8
  store ptr %1, ptr %5, align 8
  %6 = load ptr, ptr %4, align 8
  %7 = call noundef ptr @_ZNK4Node2inEj(ptr noundef nonnull align 8 dereferenceable(52) %6, i32 noundef 0)
  %8 = icmp ne ptr %7, null
  br i1 %8, label %11, label %9

9:                                                ; preds = %2
  %10 = load ptr, ptr @_ZN4Type3TOPE, align 8
  store ptr %10, ptr %3, align 8
  br label %27

11:                                               ; preds = %2
  %12 = load ptr, ptr %5, align 8
  %13 = call noundef ptr @_ZNK4Node2inEj(ptr noundef nonnull align 8 dereferenceable(52) %6, i32 noundef 0)
  %14 = call noundef ptr @_ZNK11PhaseValues4typeEPK4Node(ptr noundef nonnull align 8 dereferenceable(2400) %12, ptr noundef %13)
  %15 = load ptr, ptr @_ZN4Type3TOPE, align 8
  %16 = icmp eq ptr %14, %15
  br i1 %16, label %17, label %19

17:                                               ; preds = %11
  %18 = load ptr, ptr @_ZN4Type3TOPE, align 8
  store ptr %18, ptr %3, align 8
  br label %27

19:                                               ; preds = %11
  %20 = load ptr, ptr %5, align 8
  %21 = call noundef zeroext i1 @_ZNK26OuterStripMinedLoopEndNode11is_expandedEP8PhaseGVN(ptr noundef nonnull align 8 dereferenceable(60) %6, ptr noundef %20)
  br i1 %21, label %22, label %25

22:                                               ; preds = %19
  %23 = load ptr, ptr %5, align 8
  %24 = call noundef ptr @_ZNK6IfNode5ValueEP8PhaseGVN(ptr noundef nonnull align 8 dereferenceable(60) %6, ptr noundef %23)
  store ptr %24, ptr %3, align 8
  br label %27

25:                                               ; preds = %19
  %26 = load ptr, ptr @_ZN9TypeTuple6IFBOTHE, align 8
  store ptr %26, ptr %3, align 8
  br label %27

27:                                               ; preds = %25, %22, %17, %9
  %28 = load ptr, ptr %3, align 8
  ret ptr %28
}