; Function Attrs: mustprogress nounwind uwtable
define hidden noundef ptr @_ZNK26OuterStripMinedLoopEndNode5ValueEP8PhaseGVN(ptr noundef nonnull align 8 dereferenceable(60) %0, ptr noundef %1) unnamed_addr #0 align 2 {
  %3 = getelementptr inbounds i8, ptr %0, i64 8
  %4 = load ptr, ptr %3, align 8
  %5 = load ptr, ptr %4, align 8
  %.not = icmp eq ptr %5, null
  br i1 %.not, label %6, label %8

6:                                                ; preds = %2
  %7 = load ptr, ptr @_ZN4Type3TOPE, align 8
  br label %38

8:                                                ; preds = %2
  %9 = getelementptr inbounds i8, ptr %1, i64 40
  %10 = load ptr, ptr %9, align 8
  %11 = getelementptr inbounds i8, ptr %5, i64 40
  %12 = load i32, ptr %11, align 8
  %13 = getelementptr inbounds i8, ptr %10, i64 16
  %14 = load ptr, ptr %13, align 8
  %15 = zext i32 %12 to i64
  %16 = getelementptr inbounds ptr, ptr %14, i64 %15
  %17 = load ptr, ptr %16, align 8
  %18 = load ptr, ptr @_ZN4Type3TOPE, align 8
  %19 = icmp eq ptr %17, %18
  br i1 %19, label %38, label %20

20:                                               ; preds = %8
  %21 = getelementptr inbounds i8, ptr %1, i64 24
  %22 = load i8, ptr %21, align 8
  %23 = trunc i8 %22 to i1
  br i1 %23, label %24, label %_ZNK26OuterStripMinedLoopEndNode11is_expandedEP8PhaseGVN.exit

24:                                               ; preds = %20
  %25 = tail call noundef ptr @_ZNK9MultiNode16proj_out_or_nullEj(ptr noundef nonnull align 8 dereferenceable(52) %0, i32 noundef 1) #15
  %.not10.i = icmp eq ptr %25, null
  br i1 %.not10.i, label %_ZNK26OuterStripMinedLoopEndNode11is_expandedEP8PhaseGVN.exit, label %26

26:                                               ; preds = %24
  %27 = tail call noundef ptr @_ZNK4Node23unique_ctrl_out_or_nullEv(ptr noundef nonnull align 8 dereferenceable(52) %25) #15
  %.not11.i = icmp eq ptr %27, null
  br i1 %.not11.i, label %_ZNK26OuterStripMinedLoopEndNode11is_expandedEP8PhaseGVN.exit, label %28

28:                                               ; preds = %26
  %29 = getelementptr inbounds i8, ptr %27, i64 44
  %30 = load i32, ptr %29, align 4
  %31 = and i32 %30, 1023
  %32 = icmp eq i32 %31, 608
  br i1 %32, label %33, label %_ZNK26OuterStripMinedLoopEndNode11is_expandedEP8PhaseGVN.exit

33:                                               ; preds = %28
  %34 = tail call noundef ptr @_ZN4Node13find_out_withEi(ptr noundef nonnull align 8 dereferenceable(52) %27, i32 noundef 275) #15
  %.not12.i = icmp eq ptr %34, null
  br i1 %.not12.i, label %_ZNK26OuterStripMinedLoopEndNode11is_expandedEP8PhaseGVN.exit, label %35

35:                                               ; preds = %33
  %36 = tail call noundef ptr @_ZNK6IfNode5ValueEP8PhaseGVN(ptr noundef nonnull align 8 dereferenceable(60) %0, ptr noundef nonnull %1) #15
  br label %38

_ZNK26OuterStripMinedLoopEndNode11is_expandedEP8PhaseGVN.exit: ; preds = %33, %28, %26, %24, %20
  %37 = load ptr, ptr @_ZN9TypeTuple6IFBOTHE, align 8
  br label %38

38:                                               ; preds = %8, %_ZNK26OuterStripMinedLoopEndNode11is_expandedEP8PhaseGVN.exit, %35, %6
  %.0 = phi ptr [ %36, %35 ], [ %37, %_ZNK26OuterStripMinedLoopEndNode11is_expandedEP8PhaseGVN.exit ], [ %7, %6 ], [ %18, %8 ]
  ret ptr %.0
}